Certificate:
    Data:
        Version: 3 (0x2)
        Serial Number: 5 (0x5)
    Signature Algorithm: ecdsa-with-SHA384
        Issuer: CN=ECC_CA, OU=Support, O=AWSLABS
        Validity
            Not Before: Apr  5 01:23:51 2018 GMT
            Not After : Apr  5 01:23:51 2019 GMT
        Subject: C=AU, ST=NSW, O=AWSLABS, OU=Support, CN=testing.AWSLABS.com, L=SYD
        Subject Public Key Info:
            Public Key Algorithm: id-ecPublicKey
                Public-Key: (256 bit)
                pub: 
                    04:f2:79:b7:bb:11:49:c1:93:a8:19:e6:a4:56:a1:
                    49:02:0d:5b:2d:60:70:4b:0d:a9:76:70:44:89:be:
                    f3:7e:73:92:32:a3:06:0e:96:fc:fd:1f:ef:dc:75:
                    7d:93:d8:25:9b:67:a2:2f:29:11:87:6f:3d:ac:a0:
                    29:83:9b:71:14
                ASN1 OID: prime256v1
                NIST CURVE: P-256
        X509v3 extensions:
            X509v3 Basic Constraints: 
                CA:FALSE
            Netscape Cert Type: 
                SSL Server
            Netscape Comment: 
                OpenSSL Generated Server Certificate
            X509v3 Subject Key Identifier: 
                BC:03:0F:B0:8F:69:F9:0E:73:4E:1A:ED:F0:22:71:B8:02:06:EA:2C
            X509v3 Authority Key Identifier: 
                keyid:AA:A1:12:32:1C:EB:7A:71:AC:C9:F9:7B:F6:95:43:C8:2A:BB:D2:89
                DirName:/CN=ECC_CA/OU=Support/O=AWSLABS
                serial:B6:C7:3B:6B:B9:70:8A:AB

            X509v3 Key Usage: critical
                Digital Signature, Key Encipherment
            X509v3 Extended Key Usage: 
                TLS Web Server Authentication
    Signature Algorithm: ecdsa-with-SHA384
         30:66:02:31:00:db:55:7e:c9:79:8c:80:4d:ac:b6:58:9b:d4:
         97:5b:6b:11:9f:d0:00:9a:65:b4:ee:9a:09:d0:85:1f:a8:e4:
         bf:2d:ce:e7:f5:38:80:08:ee:bb:c7:95:94:38:6f:7d:b7:02:
         31:00:fb:11:6a:7f:c5:17:c7:f1:08:98:46:0c:dd:e9:66:6c:
         b8:0d:65:2e:61:f8:1c:8e:13:b5:79:e4:0b:35:b7:80:c8:46:
         58:8e:11:a7:7a:99:a3:cb:b8:bb:eb:92:94:31
-----BEGIN CERTIFICATE-----
MIICszCCAjigAwIBAgIBBTAKBggqhkjOPQQDAzA1MQ8wDQYDVQQDDAZFQ0NfQ0Ex
EDAOBgNVBAsMB1N1cHBvcnQxEDAOBgNVBAoMB0FXU0xBQlMwHhcNMTgwNDA1MDEy
MzUxWhcNMTkwNDA1MDEyMzUxWjBrMQswCQYDVQQGEwJBVTEMMAoGA1UECAwDTlNX
MRAwDgYDVQQKDAdBV1NMQUJTMRAwDgYDVQQLDAdTdXBwb3J0MRwwGgYDVQQDDBN0
ZXN0aW5nLkFXU0xBQlMuY29tMQwwCgYDVQQHDANTWUQwWTATBgcqhkjOPQIBBggq
hkjOPQMBBwNCAATyebe7EUnBk6gZ5qRWoUkCDVstYHBLDal2cESJvvN+c5IyowYO
lvz9H+/cdX2T2CWbZ6IvKRGHbz2soCmDm3EUo4IBATCB/jAJBgNVHRMEAjAAMBEG
CWCGSAGG+EIBAQQEAwIGQDAzBglghkgBhvhCAQ0EJhYkT3BlblNTTCBHZW5lcmF0
ZWQgU2VydmVyIENlcnRpZmljYXRlMB0GA1UdDgQWBBS8Aw+wj2n5DnNOGu3wInG4
AgbqLDBlBgNVHSMEXjBcgBSqoRIyHOt6cazJ+Xv2lUPIKrvSiaE5pDcwNTEPMA0G
A1UEAwwGRUNDX0NBMRAwDgYDVQQLDAdTdXBwb3J0MRAwDgYDVQQKDAdBV1NMQUJT
ggkAtsc7a7lwiqswDgYDVR0PAQH/BAQDAgWgMBMGA1UdJQQMMAoGCCsGAQUFBwMB
MAoGCCqGSM49BAMDA2kAMGYCMQDbVX7JeYyATay2WJvUl1trEZ/QAJpltO6aCdCF
H6jkvy3O5/U4gAjuu8eVlDhvfbcCMQD7EWp/xRfH8QiYRgzd6WZsuA1lLmH4HI4T
tXnkCzW3gMhGWI4Rp3qZo8u4u+uSlDE=
-----END CERTIFICATE-----
