Certificate:
    Data:
        Version: 3 (0x2)
        Serial Number: 6 (0x6)
    Signature Algorithm: ecdsa-with-SHA384
        Issuer: CN=ECC_CA, OU=Support, O=AWSLABS
        Validity
            Not Before: Apr  5 01:31:00 2018 GMT
            Not After : Apr  5 01:31:00 2019 GMT
        Subject: C=AU, ST=NSW, O=AWSLABS, OU=Support, CN=testing.AWSLABS.com, L=SYD
        Subject Public Key Info:
            Public Key Algorithm: id-ecPublicKey
                Public-Key: (256 bit)
                pub: 
                    04:65:23:73:23:90:ba:6e:a7:b6:85:e6:c7:0c:d1:
                    14:4b:52:8a:08:c5:a7:36:c2:bc:10:e3:d4:8f:07:
                    17:50:3d:41:25:b7:00:76:c2:6d:9e:d2:17:a3:32:
                    86:b1:ae:51:76:05:0e:5c:97:d8:b3:26:5f:db:56:
                    47:c7:b3:5a:ba
                ASN1 OID: prime256v1
                NIST CURVE: P-256
        X509v3 extensions:
            X509v3 Basic Constraints: 
                CA:FALSE
            Netscape Cert Type: 
                SSL Server
            Netscape Comment: 
                OpenSSL Generated Server Certificate
            X509v3 Subject Key Identifier: 
                7C:A2:1C:65:DC:23:26:0D:DE:26:B3:43:F5:33:80:9D:D6:2D:36:FA
            X509v3 Authority Key Identifier: 
                keyid:AA:A1:12:32:1C:EB:7A:71:AC:C9:F9:7B:F6:95:43:C8:2A:BB:D2:89
                DirName:/CN=ECC_CA/OU=Support/O=AWSLABS
                serial:B6:C7:3B:6B:B9:70:8A:AB

            X509v3 Key Usage: critical
                Digital Signature, Key Encipherment
            X509v3 Extended Key Usage: 
                TLS Web Server Authentication
    Signature Algorithm: ecdsa-with-SHA384
         30:65:02:31:00:cd:bc:24:1c:be:71:1e:c2:cb:83:ef:0d:04:
         42:36:2c:98:7e:a7:a7:8e:05:d9:75:5b:91:12:a7:65:1e:37:
         ef:40:a1:fe:db:d2:3c:24:76:29:e5:0e:c5:ee:a8:ca:f5:02:
         30:27:f9:01:15:5b:0b:f0:f1:7b:31:ca:50:c6:78:8b:86:f7:
         55:94:5f:30:a4:51:13:86:b0:aa:dd:42:29:f8:e0:3d:f2:24:
         4c:d7:7e:12:f5:d3:7d:86:41:5e:a6:09:47
-----BEGIN CERTIFICATE-----
MIICsjCCAjigAwIBAgIBBjAKBggqhkjOPQQDAzA1MQ8wDQYDVQQDDAZFQ0NfQ0Ex
EDAOBgNVBAsMB1N1cHBvcnQxEDAOBgNVBAoMB0FXU0xBQlMwHhcNMTgwNDA1MDEz
MTAwWhcNMTkwNDA1MDEzMTAwWjBrMQswCQYDVQQGEwJBVTEMMAoGA1UECAwDTlNX
MRAwDgYDVQQKDAdBV1NMQUJTMRAwDgYDVQQLDAdTdXBwb3J0MRwwGgYDVQQDDBN0
ZXN0aW5nLkFXU0xBQlMuY29tMQwwCgYDVQQHDANTWUQwWTATBgcqhkjOPQIBBggq
hkjOPQMBBwNCAARlI3MjkLpup7aF5scM0RRLUooIxac2wrwQ49SPBxdQPUEltwB2
wm2e0hejMoaxrlF2BQ5cl9izJl/bVkfHs1q6o4IBATCB/jAJBgNVHRMEAjAAMBEG
CWCGSAGG+EIBAQQEAwIGQDAzBglghkgBhvhCAQ0EJhYkT3BlblNTTCBHZW5lcmF0
ZWQgU2VydmVyIENlcnRpZmljYXRlMB0GA1UdDgQWBBR8ohxl3CMmDd4ms0P1M4Cd
1i02+jBlBgNVHSMEXjBcgBSqoRIyHOt6cazJ+Xv2lUPIKrvSiaE5pDcwNTEPMA0G
A1UEAwwGRUNDX0NBMRAwDgYDVQQLDAdTdXBwb3J0MRAwDgYDVQQKDAdBV1NMQUJT
ggkAtsc7a7lwiqswDgYDVR0PAQH/BAQDAgWgMBMGA1UdJQQMMAoGCCsGAQUFBwMB
MAoGCCqGSM49BAMDA2gAMGUCMQDNvCQcvnEewsuD7w0EQjYsmH6np44F2XVbkRKn
ZR4370Ch/tvSPCR2KeUOxe6oyvUCMCf5ARVbC/DxezHKUMZ4i4b3VZRfMKRRE4aw
qt1CKfjgPfIkTNd+EvXTfYZBXqYJRw==
-----END CERTIFICATE-----
